target datalayout = "e-m:e-p270:32:32-p271:32:32-p272:64:64-i64:64-i128:128-f80:128-n8:16:32:64-S128"
target triple = "x86_64-pc-linux-gnu"

%struct.uv_handle_s = type { ptr, ptr, i32, ptr, %struct.uv__queue, %union.anon.0, ptr, i32 }
%struct.uv__queue = type { ptr, ptr }
%union.anon.0 = type { [4 x ptr] }
%struct.uv_loop_s = type { ptr, i32, %struct.uv__queue, %union.anon.1, ptr, i32, i64, i32, %struct.uv__queue, %struct.uv__queue, ptr, i32, i32, %struct.uv__queue, %union.pthread_mutex_t, %struct.uv_async_s, %union.pthread_rwlock_t, ptr, %struct.uv__queue, %struct.uv__queue, %struct.uv__queue, %struct.uv__queue, %struct.uv__queue, ptr, %struct.uv__io_s, i32, %struct.anon, i64, i64, [2 x i32], %struct.uv__io_s, %struct.uv_signal_s, i32, %struct.uv__io_s, ptr, i32 }
%union.anon.1 = type { ptr }
%union.pthread_mutex_t = type { %struct.__pthread_mutex_s }
%struct.__pthread_mutex_s = type { i32, i32, i32, i32, i32, i16, i16, %struct.__pthread_internal_list }
%struct.__pthread_internal_list = type { ptr, ptr }
%struct.uv_async_s = type { ptr, ptr, i32, ptr, %struct.uv__queue, %union.anon.2, ptr, i32, ptr, %struct.uv__queue, i32 }
%union.anon.2 = type { [4 x ptr] }
%union.pthread_rwlock_t = type { %struct.__pthread_rwlock_arch_t }
%struct.__pthread_rwlock_arch_t = type { i32, i32, i32, i32, i32, i32, i32, i32, i8, [7 x i8], i64, i32 }
%struct.anon = type { ptr, i32 }
%struct.uv_signal_s = type { ptr, ptr, i32, ptr, %struct.uv__queue, %union.anon.3, ptr, i32, ptr, i32, %struct.anon.4, i32, i32 }
%union.anon.3 = type { [4 x ptr] }
%struct.anon.4 = type { ptr, ptr, ptr, i32 }
%struct.uv__io_s = type { ptr, %struct.uv__queue, %struct.uv__queue, i32, i32, i32 }
%struct.uv_stream_s = type { ptr, ptr, i32, ptr, %struct.uv__queue, %union.anon, ptr, i32, i64, ptr, ptr, ptr, ptr, %struct.uv__io_s, %struct.uv__queue, %struct.uv__queue, ptr, i32, i32, ptr }
%union.anon = type { [4 x ptr] }
%struct.uv_buf_t = type { ptr, i64 }
%struct.uv_write_s = type { ptr, i32, [6 x ptr], ptr, ptr, ptr, %struct.uv__queue, i32, ptr, i32, i32, [4 x %struct.uv_buf_t] }
%struct.uv_pipe_s = type { ptr, ptr, i32, ptr, %struct.uv__queue, %union.anon.5, ptr, i32, i64, ptr, ptr, ptr, ptr, %struct.uv__io_s, %struct.uv__queue, %struct.uv__queue, ptr, i32, i32, ptr, i32, ptr }
%union.anon.5 = type { [4 x ptr] }
%struct.uv_udp_s = type { ptr, ptr, i32, ptr, %struct.uv__queue, %union.anon.6, ptr, i32, i64, i64, ptr, ptr, %struct.uv__io_s, %struct.uv__queue, %struct.uv__queue }
%union.anon.6 = type { [4 x ptr] }

; Function Attrs: nounwind uwtable
define internal i32 @uv__handle_fd(ptr noundef %0) #0 {
  %2 = alloca i32, align 4
  %3 = alloca ptr, align 8
  store ptr %0, ptr %3, align 8
  %4 = load ptr, ptr %3, align 8
  %5 = getelementptr inbounds nuw %struct.uv_handle_s, ptr %4, i32 0, i32 2
  %6 = load i32, ptr %5, align 8
  switch i32 %6, label %17 [
    i32 7, label %7
    i32 12, label %7
    i32 15, label %12
  ]

7:                                                ; preds = %1, %1
  %8 = load ptr, ptr %3, align 8
  %9 = getelementptr inbounds nuw %struct.uv_stream_s, ptr %8, i32 0, i32 13
  %10 = getelementptr inbounds nuw %struct.uv__io_s, ptr %9, i32 0, i32 5
  %11 = load i32, ptr %10, align 8
  store i32 %11, ptr %2, align 4
  br label %18

12:                                               ; preds = %1
  %13 = load ptr, ptr %3, align 8
  %14 = getelementptr inbounds nuw %struct.uv_udp_s, ptr %13, i32 0, i32 12
  %15 = getelementptr inbounds nuw %struct.uv__io_s, ptr %14, i32 0, i32 5
  %16 = load i32, ptr %15, align 8
  store i32 %16, ptr %2, align 4
  br label %18

17:                                               ; preds = %1
  store i32 -1, ptr %2, align 4
  br label %18

18:                                               ; preds = %17, %12, %7
  %19 = load i32, ptr %2, align 4
  ret i32 %19
}

; Function Attrs: nounwind uwtable
define internal void @uv__stream_osx_interrupt_select(ptr noundef %0) #0 {
  %2 = alloca ptr, align 8
  store ptr %0, ptr %2, align 8
  ret void
}

; Function Attrs: inlinehint nounwind uwtable
define internal void @uv__queue_insert_tail(ptr noundef %0, ptr noundef %1) #2 {
  %3 = alloca ptr, align 8
  %4 = alloca ptr, align 8
  store ptr %0, ptr %3, align 8
  store ptr %1, ptr %4, align 8
  %5 = load ptr, ptr %3, align 8
  %6 = load ptr, ptr %4, align 8
  %7 = getelementptr inbounds nuw %struct.uv__queue, ptr %6, i32 0, i32 0
  store ptr %5, ptr %7, align 8
  %8 = load ptr, ptr %3, align 8
  %9 = getelementptr inbounds nuw %struct.uv__queue, ptr %8, i32 0, i32 1
  %10 = load ptr, ptr %9, align 8
  %11 = load ptr, ptr %4, align 8
  %12 = getelementptr inbounds nuw %struct.uv__queue, ptr %11, i32 0, i32 1
  store ptr %10, ptr %12, align 8
  %13 = load ptr, ptr %4, align 8
  %14 = load ptr, ptr %4, align 8
  %15 = getelementptr inbounds nuw %struct.uv__queue, ptr %14, i32 0, i32 1
  %16 = load ptr, ptr %15, align 8
  %17 = getelementptr inbounds nuw %struct.uv__queue, ptr %16, i32 0, i32 0
  store ptr %13, ptr %17, align 8
  %18 = load ptr, ptr %4, align 8
  %19 = load ptr, ptr %3, align 8
  %20 = getelementptr inbounds nuw %struct.uv__queue, ptr %19, i32 0, i32 1
  store ptr %18, ptr %20, align 8
  ret void
}

; Function Attrs: inlinehint nounwind uwtable
define internal void @uv__queue_init(ptr noundef %0) #2 {
  %2 = alloca ptr, align 8
  store ptr %0, ptr %2, align 8
  %3 = load ptr, ptr %2, align 8
  %4 = load ptr, ptr %2, align 8
  %5 = getelementptr inbounds nuw %struct.uv__queue, ptr %4, i32 0, i32 0
  store ptr %3, ptr %5, align 8
  %6 = load ptr, ptr %2, align 8
  %7 = load ptr, ptr %2, align 8
  %8 = getelementptr inbounds nuw %struct.uv__queue, ptr %7, i32 0, i32 1
  store ptr %6, ptr %8, align 8
  ret void
}

; Function Attrs: nounwind uwtable
define internal i32 @uv__check_before_write(ptr noundef %0, i32 noundef %1, ptr noundef %2) #0 {
  %4 = alloca i32, align 4
  %5 = alloca ptr, align 8
  %6 = alloca i32, align 4
  %7 = alloca ptr, align 8
  store ptr %0, ptr %5, align 8
  store i32 %1, ptr %6, align 4
  store ptr %2, ptr %7, align 8
  %8 = load ptr, ptr %5, align 8
  %9 = getelementptr inbounds nuw %struct.uv_stream_s, ptr %8, i32 0, i32 13
  %10 = getelementptr inbounds nuw %struct.uv__io_s, ptr %9, i32 0, i32 5
  %11 = load i32, ptr %10, align 8
  %12 = icmp slt i32 %11, 0
  br i1 %12, label %13, label %14

13:                                               ; preds = %3
  store i32 -9, ptr %4, align 4
  br label %42

14:                                               ; preds = %3
  %15 = load ptr, ptr %5, align 8
  %16 = getelementptr inbounds nuw %struct.uv_stream_s, ptr %15, i32 0, i32 7
  %17 = load i32, ptr %16, align 8
  %18 = and i32 %17, 32768
  %19 = icmp ne i32 %18, 0
  br i1 %19, label %21, label %20

20:                                               ; preds = %14
  store i32 -32, ptr %4, align 4
  br label %42

21:                                               ; preds = %14
  %22 = load ptr, ptr %7, align 8
  %23 = icmp ne ptr %22, null
  br i1 %23, label %24, label %41

24:                                               ; preds = %21
  %25 = load ptr, ptr %5, align 8
  %26 = getelementptr inbounds nuw %struct.uv_stream_s, ptr %25, i32 0, i32 2
  %27 = load i32, ptr %26, align 8
  %28 = icmp ne i32 %27, 7
  br i1 %28, label %34, label %29

29:                                               ; preds = %24
  %30 = load ptr, ptr %5, align 8
  %31 = getelementptr inbounds nuw %struct.uv_pipe_s, ptr %30, i32 0, i32 20
  %32 = load i32, ptr %31, align 8
  %33 = icmp ne i32 %32, 0
  br i1 %33, label %35, label %34

34:                                               ; preds = %29, %24
  store i32 -22, ptr %4, align 4
  br label %42

35:                                               ; preds = %29
  %36 = load ptr, ptr %7, align 8
  %37 = call i32 @uv__handle_fd(ptr noundef %36)
  %38 = icmp slt i32 %37, 0
  br i1 %38, label %39, label %40

39:                                               ; preds = %35
  store i32 -9, ptr %4, align 4
  br label %42

40:                                               ; preds = %35
  br label %41

41:                                               ; preds = %40, %21
  store i32 0, ptr %4, align 4
  br label %42

42:                                               ; preds = %41, %39, %34, %20, %13
  %43 = load i32, ptr %4, align 4
  ret i32 %43
}

; Function Attrs: nounwind uwtable
define dso_local i32 @uv_write2(ptr noundef %0, ptr noundef %1, ptr noundef %2, i32 noundef %3, ptr noundef %4, ptr noundef %5) #0 {
  %7 = alloca i32, align 4
  %8 = alloca ptr, align 8
  %9 = alloca ptr, align 8
  %10 = alloca ptr, align 8
  %11 = alloca i32, align 4
  %12 = alloca ptr, align 8
  %13 = alloca ptr, align 8
  %14 = alloca i32, align 4
  %15 = alloca i32, align 4
  %16 = alloca i32, align 4
  store ptr %0, ptr %8, align 8
  store ptr %1, ptr %9, align 8
  store ptr %2, ptr %10, align 8
  store i32 %3, ptr %11, align 4
  store ptr %4, ptr %12, align 8
  store ptr %5, ptr %13, align 8
  call void @llvm.lifetime.start.p0(i64 4, ptr %14) #8
  call void @llvm.lifetime.start.p0(i64 4, ptr %15) #8
  %17 = load ptr, ptr %9, align 8
  %18 = load i32, ptr %11, align 4
  %19 = load ptr, ptr %12, align 8
  %20 = call i32 @uv__check_before_write(ptr noundef %17, i32 noundef %18, ptr noundef %19)
  store i32 %20, ptr %15, align 4
  %21 = load i32, ptr %15, align 4
  %22 = icmp slt i32 %21, 0
  br i1 %22, label %23, label %25

23:                                               ; preds = %6
  %24 = load i32, ptr %15, align 4
  store i32 %24, ptr %7, align 4
  store i32 1, ptr %16, align 4
  br label %125

25:                                               ; preds = %6
  %26 = load ptr, ptr %9, align 8
  %27 = getelementptr inbounds nuw %struct.uv_stream_s, ptr %26, i32 0, i32 8
  %28 = load i64, ptr %27, align 8
  %29 = icmp eq i64 %28, 0
  %30 = zext i1 %29 to i32
  store i32 %30, ptr %14, align 4
  br label %31

31:                                               ; preds = %25
  br label %32

32:                                               ; preds = %31
  %33 = load ptr, ptr %8, align 8
  %34 = getelementptr inbounds nuw %struct.uv_write_s, ptr %33, i32 0, i32 1
  store i32 3, ptr %34, align 8
  br label %35

35:                                               ; preds = %32
  br label %36

36:                                               ; preds = %35
  br label %37

37:                                               ; preds = %36
  %38 = load ptr, ptr %9, align 8
  %39 = getelementptr inbounds nuw %struct.uv_stream_s, ptr %38, i32 0, i32 1
  %40 = load ptr, ptr %39, align 8
  %41 = getelementptr inbounds nuw %struct.uv_loop_s, ptr %40, i32 0, i32 3
  %42 = load i32, ptr %41, align 8
  %43 = add i32 %42, 1
  store i32 %43, ptr %41, align 8
  br label %44

44:                                               ; preds = %37
  br label %45

45:                                               ; preds = %44
  br label %46

46:                                               ; preds = %45
  br label %47

47:                                               ; preds = %46
  %48 = load ptr, ptr %13, align 8
  %49 = load ptr, ptr %8, align 8
  %50 = getelementptr inbounds nuw %struct.uv_write_s, ptr %49, i32 0, i32 3
  store ptr %48, ptr %50, align 8
  %51 = load ptr, ptr %9, align 8
  %52 = load ptr, ptr %8, align 8
  %53 = getelementptr inbounds nuw %struct.uv_write_s, ptr %52, i32 0, i32 5
  store ptr %51, ptr %53, align 8
  %54 = load ptr, ptr %8, align 8
  %55 = getelementptr inbounds nuw %struct.uv_write_s, ptr %54, i32 0, i32 10
  store i32 0, ptr %55, align 4
  %56 = load ptr, ptr %12, align 8
  %57 = load ptr, ptr %8, align 8
  %58 = getelementptr inbounds nuw %struct.uv_write_s, ptr %57, i32 0, i32 4
  store ptr %56, ptr %58, align 8
  %59 = load ptr, ptr %8, align 8
  %60 = getelementptr inbounds nuw %struct.uv_write_s, ptr %59, i32 0, i32 6
  call void @uv__queue_init(ptr noundef %60)
  %61 = load ptr, ptr %8, align 8
  %62 = getelementptr inbounds nuw %struct.uv_write_s, ptr %61, i32 0, i32 11
  %63 = getelementptr inbounds [4 x %struct.uv_buf_t], ptr %62, i64 0, i64 0
  %64 = load ptr, ptr %8, align 8
  %65 = getelementptr inbounds nuw %struct.uv_write_s, ptr %64, i32 0, i32 8
  store ptr %63, ptr %65, align 8
  %66 = load i32, ptr %11, align 4
  %67 = zext i32 %66 to i64
  %68 = icmp ugt i64 %67, 4
  br i1 %68, label %69, label %76

69:                                               ; preds = %47
  %70 = load i32, ptr %11, align 4
  %71 = zext i32 %70 to i64
  %72 = mul i64 %71, 16
  %73 = call ptr @uv__malloc(i64 noundef %72)
  %74 = load ptr, ptr %8, align 8
  %75 = getelementptr inbounds nuw %struct.uv_write_s, ptr %74, i32 0, i32 8
  store ptr %73, ptr %75, align 8
  br label %76

76:                                               ; preds = %69, %47
  %77 = load ptr, ptr %8, align 8
  %78 = getelementptr inbounds nuw %struct.uv_write_s, ptr %77, i32 0, i32 8
  %79 = load ptr, ptr %78, align 8
  %80 = icmp eq ptr %79, null
  br i1 %80, label %81, label %82

81:                                               ; preds = %76
  store i32 -12, ptr %7, align 4
  store i32 1, ptr %16, align 4
  br label %125

82:                                               ; preds = %76
  %83 = load ptr, ptr %8, align 8
  %84 = getelementptr inbounds nuw %struct.uv_write_s, ptr %83, i32 0, i32 8
  %85 = load ptr, ptr %84, align 8
  %86 = load ptr, ptr %10, align 8
  %87 = load i32, ptr %11, align 4
  %88 = zext i32 %87 to i64
  %89 = mul i64 %88, 16
  call void @llvm.memcpy.p0.p0.i64(ptr align 8 %85, ptr align 8 %86, i64 %89, i1 false)
  %90 = load i32, ptr %11, align 4
  %91 = load ptr, ptr %8, align 8
  %92 = getelementptr inbounds nuw %struct.uv_write_s, ptr %91, i32 0, i32 9
  store i32 %90, ptr %92, align 8
  %93 = load ptr, ptr %8, align 8
  %94 = getelementptr inbounds nuw %struct.uv_write_s, ptr %93, i32 0, i32 7
  store i32 0, ptr %94, align 8
  %95 = load ptr, ptr %10, align 8
  %96 = load i32, ptr %11, align 4
  %97 = call i64 @uv__count_bufs(ptr noundef %95, i32 noundef %96)
  %98 = load ptr, ptr %9, align 8
  %99 = getelementptr inbounds nuw %struct.uv_stream_s, ptr %98, i32 0, i32 8
  %100 = load i64, ptr %99, align 8
  %101 = add i64 %100, %97
  store i64 %101, ptr %99, align 8
  %102 = load ptr, ptr %9, align 8
  %103 = getelementptr inbounds nuw %struct.uv_stream_s, ptr %102, i32 0, i32 14
  %104 = load ptr, ptr %8, align 8
  %105 = getelementptr inbounds nuw %struct.uv_write_s, ptr %104, i32 0, i32 6
  call void @uv__queue_insert_tail(ptr noundef %103, ptr noundef %105)
  %106 = load ptr, ptr %9, align 8
  %107 = getelementptr inbounds nuw %struct.uv_stream_s, ptr %106, i32 0, i32 11
  %108 = load ptr, ptr %107, align 8
  %109 = icmp ne ptr %108, null
  br i1 %109, label %110, label %111

110:                                              ; preds = %82
  br label %124

111:                                              ; preds = %82
  %112 = load i32, ptr %14, align 4
  %113 = icmp ne i32 %112, 0
  br i1 %113, label %114, label %116

114:                                              ; preds = %111
  %115 = load ptr, ptr %9, align 8
  call void @uv__write(ptr noundef %115)
  br label %123

116:                                              ; preds = %111
  %117 = load ptr, ptr %9, align 8
  %118 = getelementptr inbounds nuw %struct.uv_stream_s, ptr %117, i32 0, i32 1
  %119 = load ptr, ptr %118, align 8
  %120 = load ptr, ptr %9, align 8
  %121 = getelementptr inbounds nuw %struct.uv_stream_s, ptr %120, i32 0, i32 13
  call void @uv__io_start(ptr noundef %119, ptr noundef %121, i32 noundef 4)
  %122 = load ptr, ptr %9, align 8
  call void @uv__stream_osx_interrupt_select(ptr noundef %122)
  br label %123

123:                                              ; preds = %116, %114
  br label %124

124:                                              ; preds = %123, %110
  store i32 0, ptr %7, align 4
  store i32 1, ptr %16, align 4
  br label %125

125:                                              ; preds = %124, %81, %23
  call void @llvm.lifetime.end.p0(i64 4, ptr %15) #8
  call void @llvm.lifetime.end.p0(i64 4, ptr %14) #8
  %126 = load i32, ptr %7, align 4
  ret i32 %126
}