; Function Attrs: nounwind uwtable
define dso_local range(i32 -32, 1) i32 @uv_write2(ptr noundef %0, ptr noundef %1, ptr noundef %2, i32 noundef %3, ptr noundef %4, ptr noundef %5) local_unnamed_addr #0 {
  %7 = getelementptr inbounds nuw i8, ptr %1, i64 184
  %8 = load i32, ptr %7, align 8
  %9 = icmp slt i32 %8, 0
  br i1 %9, label %uv__check_before_write.exit.thread, label %10

10:                                               ; preds = %6
  %11 = getelementptr inbounds nuw i8, ptr %1, i64 88
  %12 = load i32, ptr %11, align 8
  %13 = and i32 %12, 32768
  %.not.i = icmp eq i32 %13, 0
  br i1 %.not.i, label %uv__check_before_write.exit.thread, label %14

14:                                               ; preds = %10
  %.not7.i = icmp eq ptr %4, null
  br i1 %.not7.i, label %uv__check_before_write.exit, label %15

15:                                               ; preds = %14
  %16 = getelementptr inbounds nuw i8, ptr %1, i64 16
  %17 = load i32, ptr %16, align 8
  %.not8.i = icmp eq i32 %17, 7
  br i1 %.not8.i, label %18, label %uv__check_before_write.exit.thread

18:                                               ; preds = %15
  %19 = getelementptr inbounds nuw i8, ptr %1, i64 248
  %20 = load i32, ptr %19, align 8
  %.not9.i = icmp eq i32 %20, 0
  br i1 %.not9.i, label %uv__check_before_write.exit.thread, label %21

21:                                               ; preds = %18
  %22 = getelementptr inbounds nuw i8, ptr %4, i64 16
  %23 = load i32, ptr %22, align 8
  switch i32 %23, label %uv__check_before_write.exit.thread [
    i32 7, label %uv__handle_fd.exit.i
    i32 12, label %uv__handle_fd.exit.i
    i32 15, label %24
  ]

24:                                               ; preds = %21
  br label %uv__handle_fd.exit.i

uv__handle_fd.exit.i:                             ; preds = %24, %21, %21
  %.sink3.i.i = phi i64 [ 176, %24 ], [ 184, %21 ], [ 184, %21 ]
  %25 = getelementptr inbounds nuw i8, ptr %4, i64 %.sink3.i.i
  %26 = load i32, ptr %25, align 8
  %27 = icmp slt i32 %26, 0
  br i1 %27, label %uv__check_before_write.exit.thread, label %uv__check_before_write.exit

uv__check_before_write.exit:                      ; preds = %uv__handle_fd.exit.i, %14
  %28 = getelementptr inbounds nuw i8, ptr %1, i64 96
  %29 = load i64, ptr %28, align 8
  %30 = icmp eq i64 %29, 0
  %31 = getelementptr inbounds nuw i8, ptr %0, i64 8
  store i32 3, ptr %31, align 8
  %32 = getelementptr inbounds nuw i8, ptr %1, i64 8
  %33 = load ptr, ptr %32, align 8
  %34 = getelementptr inbounds nuw i8, ptr %33, i64 32
  %35 = load i32, ptr %34, align 8
  %36 = add i32 %35, 1
  store i32 %36, ptr %34, align 8
  %37 = getelementptr inbounds nuw i8, ptr %0, i64 64
  store ptr %5, ptr %37, align 8
  %38 = getelementptr inbounds nuw i8, ptr %0, i64 80
  store ptr %1, ptr %38, align 8
  %39 = getelementptr inbounds nuw i8, ptr %0, i64 124
  store i32 0, ptr %39, align 4
  %40 = getelementptr inbounds nuw i8, ptr %0, i64 72
  store ptr %4, ptr %40, align 8
  %41 = getelementptr inbounds nuw i8, ptr %0, i64 88
  store ptr %41, ptr %41, align 8
  %42 = getelementptr inbounds nuw i8, ptr %0, i64 96
  store ptr %41, ptr %42, align 8
  %43 = getelementptr inbounds nuw i8, ptr %0, i64 128
  %44 = getelementptr inbounds nuw i8, ptr %0, i64 112
  store ptr %43, ptr %44, align 8
  %45 = zext i32 %3 to i64
  %46 = icmp ugt i32 %3, 4
  %47 = shl nuw nsw i64 %45, 4
  br i1 %46, label %48, label %.thread

48:                                               ; preds = %uv__check_before_write.exit
  %49 = tail call ptr @uv__malloc(i64 noundef %47) #12
  store ptr %49, ptr %44, align 8
  %50 = icmp eq ptr %49, null
  br i1 %50, label %uv__check_before_write.exit.thread, label %.thread

.thread:                                          ; preds = %uv__check_before_write.exit, %48
  %51 = phi ptr [ %49, %48 ], [ %43, %uv__check_before_write.exit ]
  tail call void @llvm.memcpy.p0.p0.i64(ptr nonnull align 8 %51, ptr align 8 %2, i64 %47, i1 false)
  %52 = getelementptr inbounds nuw i8, ptr %0, i64 120
  store i32 %3, ptr %52, align 8
  %53 = getelementptr inbounds nuw i8, ptr %0, i64 104
  store i32 0, ptr %53, align 8
  %54 = tail call i64 @uv__count_bufs(ptr noundef %2, i32 noundef %3) #12
  %55 = load i64, ptr %28, align 8
  %56 = add i64 %55, %54
  store i64 %56, ptr %28, align 8
  %57 = getelementptr inbounds nuw i8, ptr %1, i64 192
  store ptr %57, ptr %41, align 8
  %58 = getelementptr inbounds nuw i8, ptr %1, i64 200
  %59 = load ptr, ptr %58, align 8
  store ptr %59, ptr %42, align 8
  store ptr %41, ptr %59, align 8
  store ptr %41, ptr %58, align 8
  %60 = getelementptr inbounds nuw i8, ptr %1, i64 120
  %61 = load ptr, ptr %60, align 8
  %.not = icmp eq ptr %61, null
  br i1 %.not, label %62, label %uv__check_before_write.exit.thread

62:                                               ; preds = %.thread
  br i1 %30, label %63, label %64

63:                                               ; preds = %62
  tail call fastcc void @uv__write(ptr noundef nonnull %1)
  br label %uv__check_before_write.exit.thread

64:                                               ; preds = %62
  %65 = load ptr, ptr %32, align 8
  %66 = getelementptr inbounds nuw i8, ptr %1, i64 136
  tail call void @uv__io_start(ptr noundef %65, ptr noundef nonnull %66, i32 noundef 4) #12
  br label %uv__check_before_write.exit.thread

uv__check_before_write.exit.thread:               ; preds = %21, %uv__handle_fd.exit.i, %15, %18, %10, %6, %.thread, %64, %63, %48
  %.0 = phi i32 [ -12, %48 ], [ 0, %63 ], [ 0, %64 ], [ 0, %.thread ], [ -9, %21 ], [ -9, %uv__handle_fd.exit.i ], [ -22, %15 ], [ -22, %18 ], [ -32, %10 ], [ -9, %6 ]
  ret i32 %.0
}